; Function Attrs: mustprogress nofree nounwind uwtable
define void @_ZN6icu_7717double_conversion6Bignum14SubtractBignumERKS1_(ptr noundef nonnull align 4 captures(none) dereferenceable(516) %0, ptr noundef nonnull readonly align 4 captures(none) dereferenceable(516) %1) local_unnamed_addr #5 align 2 {
  %3 = getelementptr inbounds nuw i8, ptr %0, i64 2
  %4 = load i16, ptr %3, align 2, !tbaa !8
  %5 = getelementptr inbounds nuw i8, ptr %1, i64 2
  %6 = load i16, ptr %5, align 2, !tbaa !8
  %7 = icmp sgt i16 %4, %6
  br i1 %7, label %8, label %_ZN6icu_7717double_conversion6Bignum5AlignERKS1_.exit

8:                                                ; preds = %2
  %9 = sext i16 %6 to i32
  %10 = sext i16 %4 to i32
  %11 = sub nsw i32 %10, %9
  %12 = load i16, ptr %0, align 4, !tbaa !3
  %13 = sext i16 %12 to i32
  %14 = add nsw i32 %11, %13
  %15 = icmp sgt i32 %14, 128
  br i1 %15, label %20, label %_ZN6icu_7717double_conversion6Bignum14EnsureCapacityEi.exit.preheader.i

_ZN6icu_7717double_conversion6Bignum14EnsureCapacityEi.exit.preheader.i: ; preds = %8
  %16 = icmp sgt i16 %12, 0
  br i1 %16, label %.lr.ph.i, label %.lr.ph20.i

.lr.ph.i:                                         ; preds = %_ZN6icu_7717double_conversion6Bignum14EnsureCapacityEi.exit.preheader.i
  %17 = getelementptr inbounds nuw i8, ptr %0, i64 4
  %18 = zext nneg i16 %12 to i64
  %19 = sext i32 %11 to i64
  br label %_ZN6icu_7717double_conversion6Bignum14EnsureCapacityEi.exit.i

20:                                               ; preds = %8
  tail call void @abort() #12
  unreachable

.lr.ph20.i:                                       ; preds = %_ZN6icu_7717double_conversion6Bignum14EnsureCapacityEi.exit.i, %_ZN6icu_7717double_conversion6Bignum14EnsureCapacityEi.exit.preheader.i
  %21 = getelementptr inbounds nuw i8, ptr %0, i64 4
  %22 = zext nneg i32 %11 to i64
  %23 = shl nuw nsw i64 %22, 2
  tail call void @llvm.memset.p0.i64(ptr nonnull align 4 %21, i8 0, i64 %23, i1 false), !tbaa !9
  %24 = trunc i32 %11 to i16
  %25 = add i16 %12, %24
  store i16 %25, ptr %0, align 4, !tbaa !3
  %26 = sub i16 %4, %24
  store i16 %26, ptr %3, align 2, !tbaa !8
  %.pre = load i16, ptr %5, align 2, !tbaa !8
  br label %_ZN6icu_7717double_conversion6Bignum5AlignERKS1_.exit

_ZN6icu_7717double_conversion6Bignum14EnsureCapacityEi.exit.i: ; preds = %_ZN6icu_7717double_conversion6Bignum14EnsureCapacityEi.exit.i, %.lr.ph.i
  %indvars.iv.i = phi i64 [ %18, %.lr.ph.i ], [ %indvars.iv.next.i, %_ZN6icu_7717double_conversion6Bignum14EnsureCapacityEi.exit.i ]
  %indvars.iv.next.i = add nsw i64 %indvars.iv.i, -1
  %27 = getelementptr inbounds nuw [128 x i32], ptr %17, i64 0, i64 %indvars.iv.next.i
  %28 = load i32, ptr %27, align 4, !tbaa !9
  %29 = add nsw i64 %indvars.iv.next.i, %19
  %30 = getelementptr inbounds [128 x i32], ptr %17, i64 0, i64 %29
  store i32 %28, ptr %30, align 4, !tbaa !9
  %31 = icmp samesign ugt i64 %indvars.iv.i, 1
  br i1 %31, label %_ZN6icu_7717double_conversion6Bignum14EnsureCapacityEi.exit.i, label %.lr.ph20.i, !llvm.loop !26

_ZN6icu_7717double_conversion6Bignum5AlignERKS1_.exit: ; preds = %2, %.lr.ph20.i
  %32 = phi i16 [ %4, %2 ], [ %26, %.lr.ph20.i ]
  %33 = phi i16 [ %6, %2 ], [ %.pre, %.lr.ph20.i ]
  %34 = sext i16 %33 to i32
  %35 = sext i16 %32 to i32
  %36 = sub nsw i32 %34, %35
  %37 = load i16, ptr %1, align 4, !tbaa !3
  %38 = sext i16 %37 to i32
  %39 = icmp sgt i16 %37, 0
  br i1 %39, label %.lr.ph, label %._crit_edge

.lr.ph:                                           ; preds = %_ZN6icu_7717double_conversion6Bignum5AlignERKS1_.exit
  %40 = getelementptr inbounds nuw i8, ptr %0, i64 4
  %41 = getelementptr inbounds nuw i8, ptr %1, i64 4
  %42 = sext i32 %36 to i64
  %wide.trip.count = zext nneg i32 %38 to i64
  br label %47

.preheader:                                       ; preds = %47
  %43 = icmp sgt i32 %54, -1
  br i1 %43, label %._crit_edge, label %.lr.ph32

.lr.ph32:                                         ; preds = %.preheader
  %44 = zext nneg i32 %38 to i64
  %45 = getelementptr inbounds nuw i8, ptr %0, i64 4
  %46 = sext i32 %36 to i64
  br label %57

47:                                               ; preds = %.lr.ph, %47
  %indvars.iv = phi i64 [ 0, %.lr.ph ], [ %indvars.iv.next, %47 ]
  %.028 = phi i32 [ 0, %.lr.ph ], [ %56, %47 ]
  %48 = add nsw i64 %indvars.iv, %42
  %49 = getelementptr inbounds [128 x i32], ptr %40, i64 0, i64 %48
  %50 = load i32, ptr %49, align 4, !tbaa !9
  %51 = getelementptr inbounds nuw [128 x i32], ptr %41, i64 0, i64 %indvars.iv
  %52 = load i32, ptr %51, align 4, !tbaa !9
  %53 = add i32 %.028, %52
  %54 = sub i32 %50, %53
  %55 = and i32 %54, 268435455
  store i32 %55, ptr %49, align 4, !tbaa !9
  %56 = lshr i32 %54, 31
  %indvars.iv.next = add nuw nsw i64 %indvars.iv, 1
  %exitcond.not = icmp eq i64 %indvars.iv.next, %wide.trip.count
  br i1 %exitcond.not, label %.preheader, label %47, !llvm.loop !29

57:                                               ; preds = %.lr.ph32, %57
  %indvars.iv35 = phi i64 [ %44, %.lr.ph32 ], [ %indvars.iv.next36, %57 ]
  %58 = add nsw i64 %indvars.iv35, %46
  %59 = getelementptr inbounds [128 x i32], ptr %45, i64 0, i64 %58
  %60 = load i32, ptr %59, align 4, !tbaa !9
  %61 = add i32 %60, -1
  %62 = and i32 %61, 268435455
  store i32 %62, ptr %59, align 4, !tbaa !9
  %indvars.iv.next36 = add nuw nsw i64 %indvars.iv35, 1
  %.not = icmp sgt i32 %61, -1
  br i1 %.not, label %._crit_edge, label %57, !llvm.loop !30

._crit_edge:                                      ; preds = %57, %_ZN6icu_7717double_conversion6Bignum5AlignERKS1_.exit, %.preheader
  %.pr.i = load i16, ptr %0, align 4, !tbaa !3
  %63 = icmp sgt i16 %.pr.i, 0
  br i1 %63, label %.lr.ph.i25, label %.critedge.i

.lr.ph.i25:                                       ; preds = %._crit_edge
  %64 = getelementptr inbounds nuw i8, ptr %0, i64 4
  br label %65

65:                                               ; preds = %73, %.lr.ph.i25
  %66 = phi i16 [ %.pr.i, %.lr.ph.i25 ], [ %74, %73 ]
  %67 = zext nneg i16 %66 to i64
  %68 = add nuw nsw i64 %67, 4294967295
  %69 = and i64 %68, 4294967295
  %70 = getelementptr inbounds nuw [128 x i32], ptr %64, i64 0, i64 %69
  %71 = load i32, ptr %70, align 4, !tbaa !9
  %72 = icmp eq i32 %71, 0
  br i1 %72, label %73, label %_ZN6icu_7717double_conversion6Bignum5ClampEv.exit

73:                                               ; preds = %65
  %74 = add nsw i16 %66, -1
  store i16 %74, ptr %0, align 4, !tbaa !3
  %75 = icmp sgt i16 %66, 1
  br i1 %75, label %65, label %.critedge.thread3.i, !llvm.loop !17

.critedge.i:                                      ; preds = %._crit_edge
  %76 = icmp eq i16 %.pr.i, 0
  br i1 %76, label %.critedge.thread3.i, label %_ZN6icu_7717double_conversion6Bignum5ClampEv.exit

.critedge.thread3.i:                              ; preds = %73, %.critedge.i
  store i16 0, ptr %3, align 2, !tbaa !8
  br label %_ZN6icu_7717double_conversion6Bignum5ClampEv.exit

_ZN6icu_7717double_conversion6Bignum5ClampEv.exit: ; preds = %65, %.critedge.i, %.critedge.thread3.i
  ret void
}